; Function Attrs: mustprogress uwtable
define i32 @cvGetSeqReaderPos(ptr noundef readonly %0) local_unnamed_addr #0 personality ptr @__gxx_personality_v0 {
  %2 = alloca %"class.std::__cxx11::basic_string", align 8
  %3 = alloca %"class.std::allocator", align 1
  %.not = icmp eq ptr %0, null
  br i1 %.not, label %7, label %4

4:                                                ; preds = %1
  %5 = getelementptr inbounds nuw i8, ptr %0, i64 24
  %6 = load ptr, ptr %5, align 8, !tbaa !58
  %.not22 = icmp eq ptr %6, null
  br i1 %.not22, label %7, label %17

7:                                                ; preds = %4, %1
  call void @llvm.lifetime.start.p0(i64 32, ptr nonnull %2) #11
  call void @llvm.lifetime.start.p0(i64 1, ptr nonnull %3) #11
  call void @_ZNSt7__cxx1112basic_stringIcSt11char_traitsIcESaIcEEC2EPKcRKS3_(ptr noundef nonnull align 8 dereferenceable(32) %2, ptr noundef nonnull @.str, ptr noundef nonnull align 1 dereferenceable(1) %3)
  invoke void @_ZN2cv5errorEiRKNSt7__cxx1112basic_stringIcSt11char_traitsIcESaIcEEEPKcS9_i(i32 noundef -27, ptr noundef nonnull align 8 dereferenceable(32) %2, ptr noundef nonnull @__func__.cvGetSeqReaderPos, ptr noundef nonnull @.str.1, i32 noundef 1020) #12
          to label %8 unwind label %9

8:                                                ; preds = %7
  unreachable

9:                                                ; preds = %7
  %10 = landingpad { ptr, i32 }
          cleanup
  %11 = load ptr, ptr %2, align 8, !tbaa !3
  %12 = getelementptr inbounds nuw i8, ptr %2, i64 16
  %13 = icmp eq ptr %11, %12
  br i1 %13, label %_ZNKSt7__cxx1112basic_stringIcSt11char_traitsIcESaIcEE11_M_is_localEv.exit.thread.i.i, label %_ZNKSt7__cxx1112basic_stringIcSt11char_traitsIcESaIcEE11_M_is_localEv.exit.i.i

_ZNKSt7__cxx1112basic_stringIcSt11char_traitsIcESaIcEE11_M_is_localEv.exit.thread.i.i: ; preds = %9
  %14 = getelementptr inbounds nuw i8, ptr %2, i64 8
  %15 = load i64, ptr %14, align 8, !tbaa !11
  %16 = icmp ult i64 %15, 16
  call void @llvm.assume(i1 %16)
  br label %_ZNSt7__cxx1112basic_stringIcSt11char_traitsIcESaIcEED2Ev.exit

_ZNKSt7__cxx1112basic_stringIcSt11char_traitsIcESaIcEE11_M_is_localEv.exit.i.i: ; preds = %9
  call void @_ZdlPv(ptr noundef %11) #13
  br label %_ZNSt7__cxx1112basic_stringIcSt11char_traitsIcESaIcEED2Ev.exit

_ZNSt7__cxx1112basic_stringIcSt11char_traitsIcESaIcEED2Ev.exit: ; preds = %_ZNKSt7__cxx1112basic_stringIcSt11char_traitsIcESaIcEE11_M_is_localEv.exit.i.i, %_ZNKSt7__cxx1112basic_stringIcSt11char_traitsIcESaIcEE11_M_is_localEv.exit.thread.i.i
  call void @llvm.lifetime.end.p0(i64 1, ptr nonnull %3) #11
  call void @llvm.lifetime.end.p0(i64 32, ptr nonnull %2) #11
  resume { ptr, i32 } %10

17:                                               ; preds = %4
  %18 = getelementptr inbounds nuw i8, ptr %0, i64 8
  %19 = load ptr, ptr %18, align 8, !tbaa !57
  %20 = getelementptr inbounds nuw i8, ptr %19, i64 44
  %21 = load i32, ptr %20, align 4, !tbaa !39
  %22 = icmp slt i32 %21, 33
  br i1 %22, label %23, label %39

23:                                               ; preds = %17
  %24 = add nsw i32 %21, -1
  %25 = sext i32 %24 to i64
  %26 = shl nuw nsw i64 1, %25
  %27 = and i64 %26, 2147516555
  %.not24 = icmp eq i64 %27, 0
  br i1 %.not24, label %39, label %28

28:                                               ; preds = %23
  %29 = getelementptr inbounds [32 x i8], ptr @_ZL17icvPower2ShiftTab, i64 0, i64 %25
  %30 = load i8, ptr %29, align 1, !tbaa !52
  %31 = sext i8 %30 to i64
  %32 = getelementptr inbounds nuw i8, ptr %0, i64 32
  %33 = load ptr, ptr %32, align 8, !tbaa !61
  %34 = ptrtoint ptr %6 to i64
  %35 = ptrtoint ptr %33 to i64
  %36 = sub i64 %34, %35
  %37 = and i64 %31, 4294967295
  %38 = ashr i64 %36, %37
  br label %47

39:                                               ; preds = %23, %17
  %40 = getelementptr inbounds nuw i8, ptr %0, i64 32
  %41 = load ptr, ptr %40, align 8, !tbaa !61
  %42 = ptrtoint ptr %6 to i64
  %43 = ptrtoint ptr %41 to i64
  %44 = sub i64 %42, %43
  %45 = sext i32 %21 to i64
  %46 = sdiv i64 %44, %45
  br label %47

47:                                               ; preds = %39, %28
  %.017.in = phi i64 [ %38, %28 ], [ %46, %39 ]
  %.017 = trunc i64 %.017.in to i32
  %48 = getelementptr inbounds nuw i8, ptr %0, i64 16
  %49 = load ptr, ptr %48, align 8, !tbaa !60
  %50 = getelementptr inbounds nuw i8, ptr %49, i64 16
  %51 = load i32, ptr %50, align 8, !tbaa !53
  %52 = getelementptr inbounds nuw i8, ptr %0, i64 48
  %53 = load i32, ptr %52, align 8, !tbaa !59
  %54 = add i32 %51, %.017
  %55 = sub i32 %54, %53
  ret i32 %55
}